(dp1
(I7
I3
tp2
(lp3
I1
aI0
aI0
aI0
aI0
aI0
as(I6
I9
tp4
g3
s(I12
I1
tp5
g3
s(I11
I11
tp6
g3
s(I7
I12
tp7
g3
s(I14
I4
tp8
(lp9
I0
aI0
aI0
aI0
aI1
aI0
as(I13
I4
tp10
(lp11
I0
aI1
aI0
aI0
aI0
aI0
as(I12
I12
tp12
(lp13
I0
aI0
aI0
aI0
aI0
aI1
as(I0
I7
tp14
g3
s(I1
I6
tp15
g9
s(I0
I10
tp16
g9
s(I3
I7
tp17
g3
s(I2
I5
tp18
g3
s(I1
I11
tp19
g3
s(I8
I5
tp20
g3
s(I5
I8
tp21
g3
s(I4
I0
tp22
g11
s(I10
I8
tp23
(lp24
I0
aI0
aI0
aI1
aI0
aI0
as(I9
I0
tp25
g3
s(I6
I7
tp26
g3
s(I5
I5
tp27
g3
s(I11
I5
tp28
g3
s(I10
I7
tp29
g9
s(I7
I6
tp30
g24
s(I6
I10
tp31
g13
s(I12
I6
tp32
g3
s(I14
I1
tp33
g9
s(I13
I7
tp34
g3
s(I0
I4
tp35
g9
s(I1
I1
tp36
g3
s(I4
I10
tp37
g11
s(I3
I2
tp38
g3
s(I2
I6
tp39
g3
s(I9
I14
tp40
g9
s(I8
I2
tp41
g3
s(I5
I11
tp42
g11
s(I4
I5
tp43
g3
s(I10
I13
tp44
g11
s(I9
I3
tp45
g3
s(I6
I0
tp46
g9
s(I11
I0
tp47
g3
s(I7
I5
tp48
g13
s(I12
I11
tp49
g11
s(I14
I2
tp50
g13
s(I13
I10
tp51
g9
s(I0
I1
tp52
g24
s(I3
I12
tp53
g11
s(I1
I12
tp54
g3
s(I8
I12
tp55
g9
s(I3
I1
tp56
g9
s(I2
I11
tp57
g3
s(I9
I9
tp58
g9
s(I5
I14
tp59
g24
s(I10
I14
tp60
g3
s(I6
I13
tp61
g3
s(I7
I8
tp62
g9
s(I14
I8
tp63
g9
s(I13
I0
tp64
g3
s(I12
I8
tp65
g3
s(I13
I13
tp66
g9
s(I0
I14
tp67
g3
s(I3
I11
tp68
g13
s(I2
I1
tp69
g3
s(I8
I9
tp70
g9
s(I4
I12
tp71
g3
s(I2
I12
tp72
g13
s(I9
I4
tp73
g3
s(I5
I1
tp74
g24
s(I10
I3
tp75
g13
s(I7
I2
tp76
g24
s(I6
I14
tp77
g3
s(I12
I2
tp78
g9
s(I11
I10
tp79
g11
s(I14
I5
tp80
g24
s(I13
I3
tp81
g3
s(I12
I13
tp82
g24
s(I1
I5
tp83
g11
s(I0
I11
tp84
g11
s(I3
I6
tp85
g11
s(I2
I2
tp86
g24
s(I1
I10
tp87
g9
s(I8
I6
tp88
g3
s(I4
I1
tp89
g13
s(I10
I9
tp90
g3
s(I9
I7
tp91
g24
s(I6
I4
tp92
g11
s(I5
I4
tp93
g24
s(I11
I4
tp94
g9
s(I10
I4
tp95
g13
s(I7
I1
tp96
g11
s(I6
I11
tp97
g9
s(I12
I7
tp98
g3
s(I11
I9
tp99
g9
s(I14
I6
tp100
g13
s(I13
I6
tp101
g13
s(I0
I5
tp102
g9
s(I1
I0
tp103
g3
s(I0
I8
tp104
g9
s(I4
I11
tp105
g3
s(I3
I5
tp106
g9
s(I2
I7
tp107
g3
s(I9
I13
tp108
g9
s(I8
I3
tp109
g3
s(I5
I10
tp110
g9
s(I4
I6
tp111
g3
s(I10
I10
tp112
g24
s(I9
I2
tp113
g3
s(I6
I1
tp114
g3
s(I5
I7
tp115
g9
s(I11
I3
tp116
g3
s(I7
I4
tp117
g3
s(I14
I12
tp118
g3
s(I12
I4
tp119
g3
s(I14
I3
tp120
g13
s(I13
I9
tp121
g13
s(I0
I2
tp122
g3
s(I1
I3
tp123
g11
s(I8
I13
tp124
g24
s(I4
I8
tp125
g3
s(I3
I0
tp126
g9
s(I2
I8
tp127
g3
s(I9
I8
tp128
g3
s(I8
I0
tp129
g11
s(I5
I13
tp130
g11
s(I6
I2
tp131
g9
s(I11
I14
tp132
g13
s(I7
I11
tp133
g3
s(I14
I9
tp134
g3
s(I12
I9
tp135
g9
s(I13
I12
tp136
g13
s(I3
I10
tp137
g24
s(I1
I14
tp138
g13
s(I8
I10
tp139
g3
s(I4
I13
tp140
g13
s(I2
I13
tp141
g9
s(I9
I11
tp142
g13
s(I5
I0
tp143
g13
s(I10
I0
tp144
g13
s(I12
I3
tp145
g11
s(I11
I13
tp146
g3
s(I7
I14
tp147
g13
s(I14
I10
tp148
g9
s(I13
I2
tp149
g3
s(I12
I14
tp150
g9
s(I1
I4
tp151
g11
s(I0
I12
tp152
g3
s(I3
I9
tp153
g3
s(I2
I3
tp154
g11
s(I1
I9
tp155
g9
s(I8
I7
tp156
g11
s(I4
I2
tp157
g13
s(I2
I14
tp158
g9
s(I9
I6
tp159
g13
s(I6
I5
tp160
g24
s(I5
I3
tp161
g3
s(I11
I7
tp162
g24
s(I10
I5
tp163
g3
s(I7
I0
tp164
g9
s(I6
I8
tp165
g11
s(I12
I0
tp166
g13
s(I11
I8
tp167
g3
s(I7
I13
tp168
g13
s(I14
I7
tp169
g24
s(I13
I5
tp170
g3
s(I0
I6
tp171
g3
s(I1
I7
tp172
g9
s(I0
I9
tp173
g3
s(I3
I4
tp174
g3
s(I2
I4
tp175
g11
s(I9
I12
tp176
g9
s(I8
I4
tp177
g3
s(I5
I9
tp178
g13
s(I4
I7
tp179
g3
s(I10
I11
tp180
g3
s(I9
I1
tp181
g13
s(I6
I6
tp182
g3
s(I5
I6
tp183
g13
s(I11
I2
tp184
g3
s(I10
I6
tp185
g9
s(I7
I7
tp186
(lp187
I0
aI0
aI1
aI0
aI0
aI0
as(I14
I13
tp188
g3
s(I12
I5
tp189
g3
s(I14
I0
tp190
g11
s(I13
I8
tp191
g3
s(I0
I3
tp192
g13
s(I3
I14
tp193
g3
s(I1
I2
tp194
g24
s(I8
I14
tp195
g11
s(I4
I9
tp196
g13
s(I3
I3
tp197
g3
s(I2
I9
tp198
g9
s(I8
I1
tp199
g3
s(I5
I12
tp200
g9
s(I4
I4
tp201
g24
s(I10
I12
tp202
g13
s(I6
I3
tp203
g9
s(I11
I1
tp204
g13
s(I7
I10
tp205
g3
s(I14
I14
tp206
g3
s(I12
I10
tp207
g3
s(I13
I11
tp208
g3
s(I0
I0
tp209
g3
s(I3
I13
tp210
g9
s(I1
I13
tp211
g3
s(I8
I11
tp212
g9
s(I4
I14
tp213
g9
s(I2
I10
tp214
g11
s(I9
I10
tp215
g24
s(I10
I1
tp216
g24
s(I6
I12
tp217
g3
s(I11
I12
tp218
g9
s(I7
I9
tp219
g24
s(I14
I11
tp220
g3
s(I13
I1
tp221
g9
s(I13
I14
tp222
g24
s(I0
I13
tp223
g3
s(I3
I8
tp224
g24
s(I2
I0
tp225
g24
s(I1
I8
tp226
g11
s(I8
I8
tp227
g3
s(I4
I3
tp228
g11
s(I9
I5
tp229
g11
s(I5
I2
tp230
g13
s(I11
I6
tp231
g24
s(I10
I2
tp232
g13
s.
