(dp1
(I7
I3
tp2
(lp3
I1
aI0
aI0
aI0
aI0
aI0
as(I4
I7
tp4
g3
s(I1
I3
tp5
g3
s(I6
I6
tp6
(lp7
I0
aI0
aI0
aI1
aI0
aI0
as(I3
I0
tp8
g3
s(I2
I8
tp9
(lp10
I0
aI0
aI0
aI0
aI0
aI1
as(I8
I0
tp11
g3
s(I7
I8
tp12
g3
s(I5
I4
tp13
g3
s(I2
I1
tp14
g3
s(I5
I6
tp15
(lp16
I0
aI1
aI0
aI0
aI0
aI0
as(I6
I2
tp17
g3
s(I1
I6
tp18
g7
s(I3
I7
tp19
g16
s(I5
I1
tp20
g16
s(I0
I3
tp21
(lp22
I0
aI0
aI0
aI0
aI1
aI0
as(I8
I5
tp23
g10
s(I2
I5
tp24
g10
s(I7
I2
tp25
g3
s(I4
I0
tp26
g3
s(I1
I2
tp27
g16
s(I3
I8
tp28
g3
s(I6
I7
tp29
g3
s(I3
I3
tp30
g22
s(I0
I6
tp31
g10
s(I8
I1
tp32
g3
s(I7
I6
tp33
g7
s(I4
I4
tp34
(lp35
I0
aI0
aI1
aI0
aI0
aI0
as(I6
I3
tp36
g3
s(I1
I5
tp37
g16
s(I5
I8
tp38
g22
s(I5
I0
tp39
g22
s(I2
I2
tp40
g10
s(I8
I6
tp41
g16
s(I3
I5
tp42
g3
s(I4
I1
tp43
g3
s(I1
I1
tp44
g10
s(I6
I4
tp45
g22
s(I3
I2
tp46
g22
s(I0
I0
tp47
g3
s(I8
I2
tp48
g7
s(I2
I7
tp49
g10
s(I7
I1
tp50
g3
s(I4
I5
tp51
g22
s(I0
I4
tp52
g10
s(I6
I0
tp53
g16
s(I1
I4
tp54
g3
s(I7
I7
tp55
g3
s(I5
I5
tp56
g16
s(I7
I5
tp57
g7
s(I2
I3
tp58
g3
s(I0
I7
tp59
g10
s(I8
I7
tp60
g3
s(I6
I8
tp61
g7
s(I4
I2
tp62
g7
s(I1
I0
tp63
g3
s(I0
I8
tp64
g22
s(I5
I7
tp65
g10
s(I6
I5
tp66
g16
s(I5
I3
tp67
g10
s(I0
I1
tp68
g3
s(I8
I3
tp69
g7
s(I7
I0
tp70
g7
s(I4
I6
tp71
g3
s(I3
I6
tp72
g3
s(I3
I4
tp73
g7
s(I6
I1
tp74
g22
s(I3
I1
tp75
g7
s(I2
I6
tp76
g22
s(I2
I4
tp77
g16
s(I7
I4
tp78
g22
s(I2
I0
tp79
g16
s(I1
I8
tp80
g3
s(I8
I8
tp81
g3
s(I4
I3
tp82
g10
s(I1
I7
tp83
g22
s(I0
I5
tp84
g7
s(I4
I8
tp85
g7
s(I5
I2
tp86
g16
s(I0
I2
tp87
g22
s(I8
I4
tp88
g22
s.